; Function Attrs: mustprogress uwtable
define dso_local noundef i32 @_ZNK9Statement10pre_outputERSoP7FactMgri(ptr noundef nonnull align 8 dereferenceable(32) %0, ptr noundef nonnull align 8 dereferenceable(8) %1, ptr nocapture noundef readnone %2, i32 noundef %3) local_unnamed_addr #4 align 2 personality ptr @__gxx_personality_v0 {
  %5 = alloca %"class.std::vector.112", align 8
  call void @llvm.memset.p0.i64(ptr noundef nonnull align 8 dereferenceable(24) %5, i8 0, i64 24, i1 false)
  %6 = invoke noundef i32 @_ZNK9Statement17find_jump_sourcesERSt6vectorIPK13StatementGotoSaIS3_EE(ptr noundef nonnull align 8 dereferenceable(32) %0, ptr noundef nonnull align 8 dereferenceable(24) %5)
          to label %7 unwind label %18

7:                                                ; preds = %4
  %.not = icmp eq i32 %6, 0
  br i1 %.not, label %22, label %8

8:                                                ; preds = %7
  %9 = load ptr, ptr %5, align 8
  %10 = load ptr, ptr %9, align 8
  %11 = getelementptr inbounds i8, ptr %10, i64 48
  %12 = invoke noundef nonnull align 8 dereferenceable(8) ptr @_ZStlsIcSt11char_traitsIcESaIcEERSt13basic_ostreamIT_T0_ES7_RKNSt7__cxx1112basic_stringIS4_S5_T1_EE(ptr noundef nonnull align 8 dereferenceable(8) %1, ptr noundef nonnull align 8 dereferenceable(32) %11)
          to label %13 unwind label %18

13:                                               ; preds = %8
  %14 = invoke noundef nonnull align 8 dereferenceable(8) ptr @_ZStlsISt11char_traitsIcEERSt13basic_ostreamIcT_ES5_PKc(ptr noundef nonnull align 8 dereferenceable(8) %12, ptr noundef nonnull @.str.6)
          to label %15 unwind label %18

15:                                               ; preds = %13
  invoke void @_ZN18AttributeGenerator6OutputERSo(ptr noundef nonnull align 8 dereferenceable(24) @_ZN9Statement20label_attr_generatorE, ptr noundef nonnull align 8 dereferenceable(8) %1)
          to label %16 unwind label %18

16:                                               ; preds = %15
  %17 = invoke noundef nonnull align 8 dereferenceable(8) ptr @_ZNSolsEPFRSoS_E(ptr noundef nonnull align 8 dereferenceable(8) %1, ptr noundef nonnull @_ZSt4endlIcSt11char_traitsIcEERSt13basic_ostreamIT_T0_ES6_)
          to label %_ZNK9Statement11output_hashERSoi.exit unwind label %18

18:                                               ; preds = %24, %22, %16, %15, %13, %8, %4
  %19 = landingpad { ptr, i32 }
          cleanup
  %20 = load ptr, ptr %5, align 8
  %.not.i.i.i = icmp eq ptr %20, null
  br i1 %.not.i.i.i, label %_ZNSt6vectorIPK13StatementGotoSaIS2_EED2Ev.exit, label %21

21:                                               ; preds = %18
  tail call void @_ZdlPv(ptr noundef nonnull %20) #22
  br label %_ZNSt6vectorIPK13StatementGotoSaIS2_EED2Ev.exit

_ZNSt6vectorIPK13StatementGotoSaIS2_EED2Ev.exit:  ; preds = %18, %21
  resume { ptr, i32 } %19

22:                                               ; preds = %7
  %23 = invoke noundef zeroext i1 @_ZN9CGOptions17step_hash_by_stmtEv()
          to label %.noexc unwind label %18

.noexc:                                           ; preds = %22
  br i1 %23, label %24, label %_ZNK9Statement11output_hashERSoi.exit

24:                                               ; preds = %.noexc
  %25 = getelementptr inbounds i8, ptr %0, i64 12
  %26 = load i32, ptr %25, align 4
  invoke void @_ZN9OutputMgr28OutputStepHashFuncInvocationERSoii(ptr noundef nonnull align 8 dereferenceable(8) %1, i32 noundef %3, i32 noundef %26)
          to label %_ZNK9Statement11output_hashERSoi.exit unwind label %18

_ZNK9Statement11output_hashERSoi.exit:            ; preds = %.noexc, %24, %16
  %.0 = phi i32 [ 1, %16 ], [ 0, %24 ], [ 0, %.noexc ]
  %27 = load ptr, ptr %5, align 8
  %.not.i.i.i9 = icmp eq ptr %27, null
  br i1 %.not.i.i.i9, label %_ZNSt6vectorIPK13StatementGotoSaIS2_EED2Ev.exit10, label %28

28:                                               ; preds = %_ZNK9Statement11output_hashERSoi.exit
  tail call void @_ZdlPv(ptr noundef nonnull %27) #22
  br label %_ZNSt6vectorIPK13StatementGotoSaIS2_EED2Ev.exit10

_ZNSt6vectorIPK13StatementGotoSaIS2_EED2Ev.exit10: ; preds = %_ZNK9Statement11output_hashERSoi.exit, %28
  ret i32 %.0
}